target datalayout = "e-m:e-p270:32:32-p271:32:32-p272:64:64-i64:64-i128:128-f80:128-n8:16:32:64-S128"
target triple = "x86_64-pc-linux-gnu"

%struct.SDL_GUID = type { [16 x i8] }
%struct.SDL_VirtualJoystickDesc = type { i32, i16, i16, i16, i16, i16, i16, i16, i16, i16, i16, [2 x i16], i32, i32, ptr, ptr, ptr, ptr, ptr, ptr, ptr, ptr, ptr, ptr, ptr, ptr }
%struct.joystick_hwdata = type { i32, i8, ptr, i32, %struct.SDL_GUID, %struct.SDL_VirtualJoystickDesc, i32, ptr, ptr, ptr, ptr, ptr, ptr, i8, i32, i32, ptr, ptr, ptr }
%struct.SDL_JoystickTouchpadInfo = type { i32, ptr }
%struct.SDL_JoystickSensorInfo = type { i32, i8, float, [3 x float] }
%struct.SDL_Joystick = type { i32, ptr, ptr, ptr, %struct.SDL_GUID, i16, i64, i8, i8, i32, ptr, i32, ptr, i32, ptr, i32, ptr, i32, ptr, i32, i32, ptr, i16, i16, i64, i64, i16, i16, i64, i64, i8, i8, i8, i64, i8, i32, i32, i32, i8, i32, ptr, i32, ptr, [3 x [3 x float]], i64, ptr, ptr, i32, i32, ptr }

@g_VJoys = internal global ptr null, align 8
@.str.23 = private unnamed_addr constant [15 x i8] c"No such device\00", align 1
@.str.24 = private unnamed_addr constant [25 x i8] c"SDL.joystick.cap.rgb_led\00", align 1
@.str.25 = private unnamed_addr constant [24 x i8] c"SDL.joystick.cap.rumble\00", align 1
@.str.26 = private unnamed_addr constant [32 x i8] c"SDL.joystick.cap.trigger_rumble\00", align 1

; Function Attrs: nounwind uwtable
define internal ptr @VIRTUAL_HWDataForIndex(i32 noundef %0) #0 {
  %2 = alloca i32, align 4
  %3 = alloca ptr, align 8
  store i32 %0, ptr %2, align 4
  call void @llvm.lifetime.start.p0(i64 8, ptr %3) #7
  call void @SDL_AssertJoysticksLocked()
  %4 = load ptr, ptr @g_VJoys, align 8
  store ptr %4, ptr %3, align 8
  br label %5

5:                                                ; preds = %15, %1
  %6 = load ptr, ptr %3, align 8
  %7 = icmp ne ptr %6, null
  br i1 %7, label %8, label %19

8:                                                ; preds = %5
  %9 = load i32, ptr %2, align 4
  %10 = icmp eq i32 %9, 0
  br i1 %10, label %11, label %12

11:                                               ; preds = %8
  br label %19

12:                                               ; preds = %8
  %13 = load i32, ptr %2, align 4
  %14 = add nsw i32 %13, -1
  store i32 %14, ptr %2, align 4
  br label %15

15:                                               ; preds = %12
  %16 = load ptr, ptr %3, align 8
  %17 = getelementptr inbounds nuw %struct.joystick_hwdata, ptr %16, i32 0, i32 18
  %18 = load ptr, ptr %17, align 8
  store ptr %18, ptr %3, align 8
  br label %5, !llvm.loop !25

19:                                               ; preds = %11, %5
  %20 = load ptr, ptr %3, align 8
  call void @llvm.lifetime.end.p0(i64 8, ptr %3) #7
  ret ptr %20
}

; Function Attrs: nounwind uwtable
define internal zeroext i1 @VIRTUAL_JoystickOpen(ptr noundef %0, i32 noundef %1) #0 {
  %3 = alloca i1, align 1
  %4 = alloca ptr, align 8
  %5 = alloca i32, align 4
  %6 = alloca ptr, align 8
  %7 = alloca i32, align 4
  %8 = alloca i16, align 2
  %9 = alloca ptr, align 8
  %10 = alloca i16, align 2
  %11 = alloca ptr, align 8
  store ptr %0, ptr %4, align 8
  store i32 %1, ptr %5, align 4
  call void @llvm.lifetime.start.p0(i64 8, ptr %6) #7
  call void @SDL_AssertJoysticksLocked()
  %12 = load i32, ptr %5, align 4
  %13 = call ptr @VIRTUAL_HWDataForIndex(i32 noundef %12)
  store ptr %13, ptr %6, align 8
  %14 = load ptr, ptr %6, align 8
  %15 = icmp ne ptr %14, null
  br i1 %15, label %18, label %16

16:                                               ; preds = %2
  %17 = call zeroext i1 (ptr, ...) @SDL_SetError_REAL(ptr noundef @.str.23)
  store i1 %17, ptr %3, align 1
  store i32 1, ptr %7, align 4
  br label %129

18:                                               ; preds = %2
  %19 = load ptr, ptr %6, align 8
  %20 = load ptr, ptr %4, align 8
  %21 = getelementptr inbounds nuw %struct.SDL_Joystick, ptr %20, i32 0, i32 46
  store ptr %19, ptr %21, align 8
  %22 = load ptr, ptr %6, align 8
  %23 = getelementptr inbounds nuw %struct.joystick_hwdata, ptr %22, i32 0, i32 5
  %24 = getelementptr inbounds nuw %struct.SDL_VirtualJoystickDesc, ptr %23, i32 0, i32 5
  %25 = load i16, ptr %24, align 4
  %26 = zext i16 %25 to i32
  %27 = load ptr, ptr %4, align 8
  %28 = getelementptr inbounds nuw %struct.SDL_Joystick, ptr %27, i32 0, i32 9
  store i32 %26, ptr %28, align 4
  %29 = load ptr, ptr %6, align 8
  %30 = getelementptr inbounds nuw %struct.joystick_hwdata, ptr %29, i32 0, i32 5
  %31 = getelementptr inbounds nuw %struct.SDL_VirtualJoystickDesc, ptr %30, i32 0, i32 6
  %32 = load i16, ptr %31, align 2
  %33 = zext i16 %32 to i32
  %34 = load ptr, ptr %4, align 8
  %35 = getelementptr inbounds nuw %struct.SDL_Joystick, ptr %34, i32 0, i32 15
  store i32 %33, ptr %35, align 8
  %36 = load ptr, ptr %6, align 8
  %37 = getelementptr inbounds nuw %struct.joystick_hwdata, ptr %36, i32 0, i32 5
  %38 = getelementptr inbounds nuw %struct.SDL_VirtualJoystickDesc, ptr %37, i32 0, i32 8
  %39 = load i16, ptr %38, align 2
  %40 = zext i16 %39 to i32
  %41 = load ptr, ptr %4, align 8
  %42 = getelementptr inbounds nuw %struct.SDL_Joystick, ptr %41, i32 0, i32 13
  store i32 %40, ptr %42, align 8
  %43 = load ptr, ptr %4, align 8
  %44 = load ptr, ptr %6, align 8
  %45 = getelementptr inbounds nuw %struct.joystick_hwdata, ptr %44, i32 0, i32 17
  store ptr %43, ptr %45, align 8
  call void @llvm.lifetime.start.p0(i64 2, ptr %8) #7
  store i16 0, ptr %8, align 2
  br label %46

46:                                               ; preds = %67, %18
  %47 = load i16, ptr %8, align 2
  %48 = zext i16 %47 to i32
  %49 = load ptr, ptr %6, align 8
  %50 = getelementptr inbounds nuw %struct.joystick_hwdata, ptr %49, i32 0, i32 5
  %51 = getelementptr inbounds nuw %struct.SDL_VirtualJoystickDesc, ptr %50, i32 0, i32 9
  %52 = load i16, ptr %51, align 4
  %53 = zext i16 %52 to i32
  %54 = icmp slt i32 %48, %53
  br i1 %54, label %56, label %55

55:                                               ; preds = %46
  store i32 2, ptr %7, align 4
  call void @llvm.lifetime.end.p0(i64 2, ptr %8) #7
  br label %70

56:                                               ; preds = %46
  call void @llvm.lifetime.start.p0(i64 8, ptr %9) #7
  %57 = load ptr, ptr %6, align 8
  %58 = getelementptr inbounds nuw %struct.joystick_hwdata, ptr %57, i32 0, i32 11
  %59 = load ptr, ptr %58, align 8
  %60 = load i16, ptr %8, align 2
  %61 = zext i16 %60 to i64
  %62 = getelementptr inbounds nuw %struct.SDL_JoystickTouchpadInfo, ptr %59, i64 %61
  store ptr %62, ptr %9, align 8
  %63 = load ptr, ptr %4, align 8
  %64 = load ptr, ptr %9, align 8
  %65 = getelementptr inbounds nuw %struct.SDL_JoystickTouchpadInfo, ptr %64, i32 0, i32 0
  %66 = load i32, ptr %65, align 8
  call void @SDL_PrivateJoystickAddTouchpad(ptr noundef %63, i32 noundef %66)
  call void @llvm.lifetime.end.p0(i64 8, ptr %9) #7
  br label %67

67:                                               ; preds = %56
  %68 = load i16, ptr %8, align 2
  %69 = add i16 %68, 1
  store i16 %69, ptr %8, align 2
  br label %46, !llvm.loop !15

70:                                               ; preds = %55
  call void @llvm.lifetime.start.p0(i64 2, ptr %10) #7
  store i16 0, ptr %10, align 2
  br label %71

71:                                               ; preds = %95, %70
  %72 = load i16, ptr %10, align 2
  %73 = zext i16 %72 to i32
  %74 = load ptr, ptr %6, align 8
  %75 = getelementptr inbounds nuw %struct.joystick_hwdata, ptr %74, i32 0, i32 5
  %76 = getelementptr inbounds nuw %struct.SDL_VirtualJoystickDesc, ptr %75, i32 0, i32 10
  %77 = load i16, ptr %76, align 2
  %78 = zext i16 %77 to i32
  %79 = icmp slt i32 %73, %78
  br i1 %79, label %81, label %80

80:                                               ; preds = %71
  store i32 5, ptr %7, align 4
  call void @llvm.lifetime.end.p0(i64 2, ptr %10) #7
  br label %98

81:                                               ; preds = %71
  call void @llvm.lifetime.start.p0(i64 8, ptr %11) #7
  %82 = load ptr, ptr %6, align 8
  %83 = getelementptr inbounds nuw %struct.joystick_hwdata, ptr %82, i32 0, i32 12
  %84 = load ptr, ptr %83, align 8
  %85 = load i16, ptr %10, align 2
  %86 = zext i16 %85 to i64
  %87 = getelementptr inbounds nuw %struct.SDL_JoystickSensorInfo, ptr %84, i64 %86
  store ptr %87, ptr %11, align 8
  %88 = load ptr, ptr %4, align 8
  %89 = load ptr, ptr %11, align 8
  %90 = getelementptr inbounds nuw %struct.SDL_JoystickSensorInfo, ptr %89, i32 0, i32 0
  %91 = load i32, ptr %90, align 4
  %92 = load ptr, ptr %11, align 8
  %93 = getelementptr inbounds nuw %struct.SDL_JoystickSensorInfo, ptr %92, i32 0, i32 2
  %94 = load float, ptr %93, align 4
  call void @SDL_PrivateJoystickAddSensor(ptr noundef %88, i32 noundef %91, float noundef %94)
  call void @llvm.lifetime.end.p0(i64 8, ptr %11) #7
  br label %95

95:                                               ; preds = %81
  %96 = load i16, ptr %10, align 2
  %97 = add i16 %96, 1
  store i16 %97, ptr %10, align 2
  br label %71, !llvm.loop !16

98:                                               ; preds = %80
  %99 = load ptr, ptr %6, align 8
  %100 = getelementptr inbounds nuw %struct.joystick_hwdata, ptr %99, i32 0, i32 5
  %101 = getelementptr inbounds nuw %struct.SDL_VirtualJoystickDesc, ptr %100, i32 0, i32 22
  %102 = load ptr, ptr %101, align 8
  %103 = icmp ne ptr %102, null
  br i1 %103, label %104, label %108

104:                                              ; preds = %98
  %105 = load ptr, ptr %4, align 8
  %106 = call i32 @SDL_GetJoystickProperties_REAL(ptr noundef %105)
  %107 = call zeroext i1 @SDL_SetBooleanProperty_REAL(i32 noundef %106, ptr noundef @.str.24, i1 noundef zeroext true)
  br label %108

108:                                              ; preds = %104, %98
  %109 = load ptr, ptr %6, align 8
  %110 = getelementptr inbounds nuw %struct.joystick_hwdata, ptr %109, i32 0, i32 5
  %111 = getelementptr inbounds nuw %struct.SDL_VirtualJoystickDesc, ptr %110, i32 0, i32 20
  %112 = load ptr, ptr %111, align 8
  %113 = icmp ne ptr %112, null
  br i1 %113, label %114, label %118

114:                                              ; preds = %108
  %115 = load ptr, ptr %4, align 8
  %116 = call i32 @SDL_GetJoystickProperties_REAL(ptr noundef %115)
  %117 = call zeroext i1 @SDL_SetBooleanProperty_REAL(i32 noundef %116, ptr noundef @.str.25, i1 noundef zeroext true)
  br label %118

118:                                              ; preds = %114, %108
  %119 = load ptr, ptr %6, align 8
  %120 = getelementptr inbounds nuw %struct.joystick_hwdata, ptr %119, i32 0, i32 5
  %121 = getelementptr inbounds nuw %struct.SDL_VirtualJoystickDesc, ptr %120, i32 0, i32 21
  %122 = load ptr, ptr %121, align 8
  %123 = icmp ne ptr %122, null
  br i1 %123, label %124, label %128

124:                                              ; preds = %118
  %125 = load ptr, ptr %4, align 8
  %126 = call i32 @SDL_GetJoystickProperties_REAL(ptr noundef %125)
  %127 = call zeroext i1 @SDL_SetBooleanProperty_REAL(i32 noundef %126, ptr noundef @.str.26, i1 noundef zeroext true)
  br label %128

128:                                              ; preds = %124, %118
  store i1 true, ptr %3, align 1
  store i32 1, ptr %7, align 4
  br label %129

129:                                              ; preds = %128, %16
  call void @llvm.lifetime.end.p0(i64 8, ptr %6) #7
  %130 = load i1, ptr %3, align 1
  ret i1 %130
}