; Function Attrs: nounwind uwtable
define internal zeroext i1 @VIRTUAL_JoystickOpen(ptr noundef %0, i32 noundef %1) #0 {
  tail call void @SDL_AssertJoysticksLocked() #8
  tail call void @SDL_AssertJoysticksLocked() #8
  %.06.i = load ptr, ptr @g_VJoys, align 8
  %3 = icmp eq ptr %.06.i, null
  %4 = icmp eq i32 %1, 0
  %or.cond7.i = or i1 %4, %3
  br i1 %or.cond7.i, label %VIRTUAL_HWDataForIndex.exit, label %.lr.ph.i

.lr.ph.i:                                         ; preds = %2, %.lr.ph.i
  %.09.i = phi ptr [ %.0.i, %.lr.ph.i ], [ %.06.i, %2 ]
  %.058.i = phi i32 [ %5, %.lr.ph.i ], [ %1, %2 ]
  %5 = add nsw i32 %.058.i, -1
  %6 = getelementptr inbounds nuw i8, ptr %.09.i, i64 264
  %.0.i = load ptr, ptr %6, align 8
  %7 = icmp eq ptr %.0.i, null
  %8 = icmp eq i32 %5, 0
  %or.cond.i = select i1 %7, i1 true, i1 %8
  br i1 %or.cond.i, label %VIRTUAL_HWDataForIndex.exit, label %.lr.ph.i, !llvm.loop !13

VIRTUAL_HWDataForIndex.exit:                      ; preds = %.lr.ph.i, %2
  %.0.lcssa.i = phi ptr [ %.06.i, %2 ], [ %.0.i, %.lr.ph.i ]
  %.not = icmp eq ptr %.0.lcssa.i, null
  br i1 %.not, label %9, label %11

9:                                                ; preds = %VIRTUAL_HWDataForIndex.exit
  %10 = tail call zeroext i1 (ptr, ...) @SDL_SetError_REAL(ptr noundef nonnull @.str.23) #8
  br label %65

11:                                               ; preds = %VIRTUAL_HWDataForIndex.exit
  %12 = getelementptr inbounds nuw i8, ptr %0, i64 328
  store ptr %.0.lcssa.i, ptr %12, align 8
  %13 = getelementptr inbounds nuw i8, ptr %.0.lcssa.i, i64 52
  %14 = load i16, ptr %13, align 4
  %15 = zext i16 %14 to i32
  %16 = getelementptr inbounds nuw i8, ptr %0, i64 68
  store i32 %15, ptr %16, align 4
  %17 = getelementptr inbounds nuw i8, ptr %.0.lcssa.i, i64 54
  %18 = load i16, ptr %17, align 2
  %19 = zext i16 %18 to i32
  %20 = getelementptr inbounds nuw i8, ptr %0, i64 112
  store i32 %19, ptr %20, align 8
  %21 = getelementptr inbounds nuw i8, ptr %.0.lcssa.i, i64 58
  %22 = load i16, ptr %21, align 2
  %23 = zext i16 %22 to i32
  %24 = getelementptr inbounds nuw i8, ptr %0, i64 96
  store i32 %23, ptr %24, align 8
  %25 = getelementptr inbounds nuw i8, ptr %.0.lcssa.i, i64 256
  store ptr %0, ptr %25, align 8
  %26 = getelementptr inbounds nuw i8, ptr %.0.lcssa.i, i64 60
  %27 = load i16, ptr %26, align 4
  %.not42 = icmp eq i16 %27, 0
  br i1 %.not42, label %.preheader, label %.lr.ph

.lr.ph:                                           ; preds = %11
  %28 = getelementptr inbounds nuw i8, ptr %.0.lcssa.i, i64 216
  br label %32

.preheader:                                       ; preds = %32, %11
  %29 = getelementptr inbounds nuw i8, ptr %.0.lcssa.i, i64 62
  %30 = load i16, ptr %29, align 2
  %.not43 = icmp eq i16 %30, 0
  br i1 %.not43, label %._crit_edge, label %.lr.ph41

.lr.ph41:                                         ; preds = %.preheader
  %31 = getelementptr inbounds nuw i8, ptr %.0.lcssa.i, i64 224
  br label %41

32:                                               ; preds = %.lr.ph, %32
  %indvars.iv = phi i64 [ 0, %.lr.ph ], [ %indvars.iv.next, %32 ]
  %33 = load ptr, ptr %28, align 8
  %34 = getelementptr inbounds nuw %struct.SDL_JoystickTouchpadInfo, ptr %33, i64 %indvars.iv
  %35 = load i32, ptr %34, align 8
  tail call void @SDL_PrivateJoystickAddTouchpad(ptr noundef nonnull %0, i32 noundef %35) #8
  %indvars.iv.next = add nuw nsw i64 %indvars.iv, 1
  %36 = load i16, ptr %26, align 4
  %37 = zext i16 %36 to i64
  %38 = icmp samesign ult i64 %indvars.iv.next, %37
  br i1 %38, label %32, label %.preheader, !llvm.loop !14

._crit_edge:                                      ; preds = %41, %.preheader
  %39 = getelementptr inbounds nuw i8, ptr %.0.lcssa.i, i64 144
  %40 = load ptr, ptr %39, align 8
  %.not36 = icmp eq ptr %40, null
  br i1 %.not36, label %53, label %50

41:                                               ; preds = %.lr.ph41, %41
  %indvars.iv45 = phi i64 [ 0, %.lr.ph41 ], [ %indvars.iv.next46, %41 ]
  %42 = load ptr, ptr %31, align 8
  %43 = getelementptr inbounds nuw %struct.SDL_JoystickSensorInfo, ptr %42, i64 %indvars.iv45
  %44 = load i32, ptr %43, align 4
  %45 = getelementptr inbounds nuw i8, ptr %43, i64 8
  %46 = load float, ptr %45, align 4
  tail call void @SDL_PrivateJoystickAddSensor(ptr noundef nonnull %0, i32 noundef %44, float noundef %46) #8
  %indvars.iv.next46 = add nuw nsw i64 %indvars.iv45, 1
  %47 = load i16, ptr %29, align 2
  %48 = zext i16 %47 to i64
  %49 = icmp samesign ult i64 %indvars.iv.next46, %48
  br i1 %49, label %41, label %._crit_edge, !llvm.loop !15

50:                                               ; preds = %._crit_edge
  %51 = tail call i32 @SDL_GetJoystickProperties_REAL(ptr noundef nonnull %0) #8
  %52 = tail call zeroext i1 @SDL_SetBooleanProperty_REAL(i32 noundef %51, ptr noundef nonnull @.str.24, i1 noundef zeroext true) #8
  br label %53

53:                                               ; preds = %50, %._crit_edge
  %54 = getelementptr inbounds nuw i8, ptr %.0.lcssa.i, i64 128
  %55 = load ptr, ptr %54, align 8
  %.not37 = icmp eq ptr %55, null
  br i1 %.not37, label %59, label %56

56:                                               ; preds = %53
  %57 = tail call i32 @SDL_GetJoystickProperties_REAL(ptr noundef nonnull %0) #8
  %58 = tail call zeroext i1 @SDL_SetBooleanProperty_REAL(i32 noundef %57, ptr noundef nonnull @.str.25, i1 noundef zeroext true) #8
  br label %59

59:                                               ; preds = %56, %53
  %60 = getelementptr inbounds nuw i8, ptr %.0.lcssa.i, i64 136
  %61 = load ptr, ptr %60, align 8
  %.not38 = icmp eq ptr %61, null
  br i1 %.not38, label %65, label %62

62:                                               ; preds = %59
  %63 = tail call i32 @SDL_GetJoystickProperties_REAL(ptr noundef nonnull %0) #8
  %64 = tail call zeroext i1 @SDL_SetBooleanProperty_REAL(i32 noundef %63, ptr noundef nonnull @.str.26, i1 noundef zeroext true) #8
  br label %65

65:                                               ; preds = %59, %62, %9
  %.0 = phi i1 [ %10, %9 ], [ true, %62 ], [ true, %59 ]
  ret i1 %.0
}